target datalayout = "e-m:e-p270:32:32-p271:32:32-p272:64:64-i64:64-i128:128-f80:128-n8:16:32:64-S128"
target triple = "x86_64-pc-linux-gnu"

%struct.asn1_string_st = type { i32, i32, ptr, i64 }

; Function Attrs: nounwind uwtable
define i32 @ossl_x509_algor_is_sm2(ptr noundef %0) #0 {
  %2 = alloca i32, align 4
  %3 = alloca ptr, align 8
  %4 = alloca i32, align 4
  %5 = alloca ptr, align 8
  %6 = alloca i32, align 4
  %7 = alloca ptr, align 8
  %8 = alloca ptr, align 8
  %9 = alloca i32, align 4
  %10 = alloca ptr, align 8
  %11 = alloca i32, align 4
  store ptr %0, ptr %3, align 8, !tbaa !71
  call void @llvm.lifetime.start.p0(i64 4, ptr %4) #3
  store i32 0, ptr %4, align 4, !tbaa !16
  call void @llvm.lifetime.start.p0(i64 8, ptr %5) #3
  store ptr null, ptr %5, align 8, !tbaa !73
  %12 = load ptr, ptr %3, align 8, !tbaa !71
  call void @X509_ALGOR_get0(ptr noundef null, ptr noundef %4, ptr noundef %5, ptr noundef %12)
  %13 = load i32, ptr %4, align 4, !tbaa !16
  %14 = icmp eq i32 %13, 6
  br i1 %14, label %15, label %20

15:                                               ; preds = %1
  %16 = load ptr, ptr %5, align 8, !tbaa !73
  %17 = call i32 @OBJ_obj2nid(ptr noundef %16)
  %18 = icmp eq i32 %17, 1172
  %19 = zext i1 %18 to i32
  store i32 %19, ptr %2, align 4
  store i32 1, ptr %6, align 4
  br label %45

20:                                               ; preds = %1
  %21 = load i32, ptr %4, align 4, !tbaa !16
  %22 = icmp eq i32 %21, 16
  br i1 %22, label %23, label %44

23:                                               ; preds = %20
  call void @llvm.lifetime.start.p0(i64 8, ptr %7) #3
  %24 = load ptr, ptr %5, align 8, !tbaa !73
  store ptr %24, ptr %7, align 8, !tbaa !74
  call void @llvm.lifetime.start.p0(i64 8, ptr %8) #3
  %25 = load ptr, ptr %7, align 8, !tbaa !74
  %26 = getelementptr inbounds nuw %struct.asn1_string_st, ptr %25, i32 0, i32 2
  %27 = load ptr, ptr %26, align 8, !tbaa !76
  store ptr %27, ptr %8, align 8, !tbaa !3
  call void @llvm.lifetime.start.p0(i64 4, ptr %9) #3
  %28 = load ptr, ptr %7, align 8, !tbaa !74
  %29 = getelementptr inbounds nuw %struct.asn1_string_st, ptr %28, i32 0, i32 0
  %30 = load i32, ptr %29, align 8, !tbaa !78
  store i32 %30, ptr %9, align 4, !tbaa !16
  call void @llvm.lifetime.start.p0(i64 8, ptr %10) #3
  call void @llvm.lifetime.start.p0(i64 4, ptr %11) #3
  %31 = load i32, ptr %9, align 4, !tbaa !16
  %32 = sext i32 %31 to i64
  %33 = call ptr @d2i_ECPKParameters(ptr noundef null, ptr noundef %8, i64 noundef %32)
  store ptr %33, ptr %10, align 8, !tbaa !23
  %34 = icmp eq ptr %33, null
  br i1 %34, label %35, label %36

35:                                               ; preds = %23
  store i32 0, ptr %11, align 4, !tbaa !16
  br label %41

36:                                               ; preds = %23
  %37 = load ptr, ptr %10, align 8, !tbaa !23
  %38 = call i32 @EC_GROUP_get_curve_name(ptr noundef %37)
  %39 = icmp eq i32 %38, 1172
  %40 = zext i1 %39 to i32
  store i32 %40, ptr %11, align 4, !tbaa !16
  br label %41

41:                                               ; preds = %36, %35
  %42 = load ptr, ptr %10, align 8, !tbaa !23
  call void @EC_GROUP_free(ptr noundef %42)
  %43 = load i32, ptr %11, align 4, !tbaa !16
  store i32 %43, ptr %2, align 4
  store i32 1, ptr %6, align 4
  call void @llvm.lifetime.end.p0(i64 4, ptr %11) #3
  call void @llvm.lifetime.end.p0(i64 8, ptr %10) #3
  call void @llvm.lifetime.end.p0(i64 4, ptr %9) #3
  call void @llvm.lifetime.end.p0(i64 8, ptr %8) #3
  call void @llvm.lifetime.end.p0(i64 8, ptr %7) #3
  br label %45

44:                                               ; preds = %20
  store i32 0, ptr %2, align 4
  store i32 1, ptr %6, align 4
  br label %45

45:                                               ; preds = %44, %41, %15
  call void @llvm.lifetime.end.p0(i64 8, ptr %5) #3
  call void @llvm.lifetime.end.p0(i64 4, ptr %4) #3
  %46 = load i32, ptr %2, align 4
  ret i32 %46
}