; Function Attrs: nounwind uwtable
define range(i32 0, 2) i32 @ossl_x509_algor_is_sm2(ptr noundef %0) local_unnamed_addr #0 {
  %2 = alloca i32, align 4
  %3 = alloca ptr, align 8
  %4 = alloca ptr, align 8
  call void @llvm.lifetime.start.p0(i64 4, ptr nonnull %2) #4
  store i32 0, ptr %2, align 4, !tbaa !29
  call void @llvm.lifetime.start.p0(i64 8, ptr nonnull %3) #4
  store ptr null, ptr %3, align 8, !tbaa !56
  call void @X509_ALGOR_get0(ptr noundef null, ptr noundef nonnull %2, ptr noundef nonnull %3, ptr noundef %0) #4
  %5 = load i32, ptr %2, align 4, !tbaa !29
  switch i32 %5, label %24 [
    i32 6, label %6
    i32 16, label %11
  ]

6:                                                ; preds = %1
  %7 = load ptr, ptr %3, align 8, !tbaa !56
  %8 = call i32 @OBJ_obj2nid(ptr noundef %7) #4
  %9 = icmp eq i32 %8, 1172
  %10 = zext i1 %9 to i32
  br label %24

11:                                               ; preds = %1
  %12 = load ptr, ptr %3, align 8, !tbaa !56
  call void @llvm.lifetime.start.p0(i64 8, ptr nonnull %4) #4
  %13 = getelementptr inbounds nuw i8, ptr %12, i64 8
  %14 = load ptr, ptr %13, align 8, !tbaa !57
  store ptr %14, ptr %4, align 8, !tbaa !26
  %15 = load i32, ptr %12, align 8, !tbaa !59
  %16 = sext i32 %15 to i64
  %17 = call ptr @d2i_ECPKParameters(ptr noundef null, ptr noundef nonnull %4, i64 noundef %16) #4
  %18 = icmp eq ptr %17, null
  br i1 %18, label %23, label %19

19:                                               ; preds = %11
  %20 = call i32 @EC_GROUP_get_curve_name(ptr noundef nonnull %17) #4
  %21 = icmp eq i32 %20, 1172
  %22 = zext i1 %21 to i32
  br label %23

23:                                               ; preds = %11, %19
  %.0 = phi i32 [ %22, %19 ], [ 0, %11 ]
  call void @EC_GROUP_free(ptr noundef %17) #4
  call void @llvm.lifetime.end.p0(i64 8, ptr nonnull %4) #4
  br label %24

24:                                               ; preds = %1, %23, %6
  %.07 = phi i32 [ %10, %6 ], [ %.0, %23 ], [ 0, %1 ]
  call void @llvm.lifetime.end.p0(i64 8, ptr nonnull %3) #4
  call void @llvm.lifetime.end.p0(i64 4, ptr nonnull %2) #4
  ret i32 %.07
}